(dp0
(S'_perf_bHR_rnd'
p1
F0.5
S'cos'
p2
tp3
cnumpy.core.multiarray
scalar
p4
(cnumpy
dtype
p5
(S'f8'
p6
I0
I1
tp7
Rp8
(I3
S'<'
p9
NNNI-1
I-1
I0
tp10
bS'\xfc\xa9\xf1\xd2Mb`?'
p11
tp12
Rp13
s(S'_perf_Novelty'
p14
F0.5
g2
tp15
g4
(g8
S'\xb2w\x1e\xc7Wm\xe2?'
p16
tp17
Rp18
s(S'_perf_wHR'
p19
F0.5
g2
tp20
g4
(g8
S'\xf2\xbd\xf0}e\xdbN?'
p21
tp22
Rp23
s(S'_perf_bHR_pop'
p24
F0.5
g2
tp25
g4
(g8
S'\x94\xf6\x06_\x98Le?'
p26
tp27
Rp28
s.