(dp0
S'_perf_Novelty'
p1
cnumpy.core.multiarray
scalar
p2
(cnumpy
dtype
p3
(S'f8'
p4
I0
I1
tp5
Rp6
(I3
S'<'
p7
NNNI-1
I-1
I0
tp8
bS'\xd1]S"\x03\xd1\xe2?'
p9
tp10
Rp11
sS'_perf_bHR_rnd'
p12
g2
(g6
S'\xaeG\xe1z\x14\xae\xc7?'
p13
tp14
Rp15
sS'_perf_bHR_pop'
p16
g2
(g6
S'R\xb8\x1e\x85\xebQ\xb8?'
p17
tp18
Rp19
sS'_perf_wHR'
p20
g2
(g6
S'\x7f\xc3\xab\x8c\xa59\xb2?'
p21
tp22
Rp23
s.