(dp0
S'_perf_Novelty'
p1
cnumpy.core.multiarray
scalar
p2
(cnumpy
dtype
p3
(S'f8'
p4
I0
I1
tp5
Rp6
(I3
S'<'
p7
NNNI-1
I-1
I0
tp8
bS'\xa25\x84q\x9b\x9d\xde?'
p9
tp10
Rp11
sS'_perf_bHR_rnd'
p12
g2
(g6
S'\x0eO\xaf\x94e\x88\xc3?'
p13
tp14
Rp15
sS'_perf_bHR_pop'
p16
g2
(g6
S'\xfb\\m\xc5\xfe\xb2\xbb?'
p17
tp18
Rp19
sS'_perf_wHR'
p20
g2
(g6
S'\xf5\x05\xd6X\xa3{\xaf?'
p21
tp22
Rp23
s.