(dp0
(S'_perf_bHR_pop'
p1
F0.8
S'bn'
p2
tp3
cnumpy.core.multiarray
scalar
p4
(cnumpy
dtype
p5
(S'f8'
p6
I0
I1
tp7
Rp8
(I3
S'<'
p9
NNNI-1
I-1
I0
tp10
bS'\x1f\x85\xebQ\xb8\x1e\xb5?'
p11
tp12
Rp13
s(S'_perf_wHR'
p14
F0.8
g2
tp15
g4
(g8
S'o:\xa2\x98C2\xa8?'
p16
tp17
Rp18
s(S'_perf_Novelty'
p19
F0.8
g2
tp20
g4
(g8
S'W\xd5\xf0*5"\xe2?'
p21
tp22
Rp23
s(S'_perf_bHR_rnd'
p24
F0.8
g2
tp25
g4
(g8
S'\xf6(\\\x8f\xc2\xf5\xc0?'
p26
tp27
Rp28
s.