(dp0
(S'_perf_wHR'
p1
F0.5
F0.1
tp2
cnumpy.core.multiarray
scalar
p3
(cnumpy
dtype
p4
(S'f8'
p5
I0
I1
tp6
Rp7
(I3
S'<'
p8
NNNI-1
I-1
I0
tp9
bS'\xe3g\x96.\xd0\x8c\xab?'
p10
tp11
Rp12
s(S'_perf_bHR_pop'
p13
F0.5
F0.1
tp14
g3
(g7
S'k\x9aw\x9c\xa2#\xb9?'
p15
tp16
Rp17
s(S'_perf_bHR_rnd'
p18
F0.5
F0.1
tp19
g3
(g7
S'\xe7\xfb\xa9\xf1\xd2M\xc2?'
p20
tp21
Rp22
s(S'_perf_Novelty'
p23
F0.5
F0.1
tp24
g3
(g7
S'\xc8\x10\x96\x93\xa9\x15\xde?'
p25
tp26
Rp27
s.