(dp0
(S'_perf_Novelty'
p1
F0.8
F0.1
tp2
cnumpy.core.multiarray
scalar
p3
(cnumpy
dtype
p4
(S'f8'
p5
I0
I1
tp6
Rp7
(I3
S'<'
p8
NNNI-1
I-1
I0
tp9
bS'\x16D\x8aa\x83\xc5\xe3?'
p10
tp11
Rp12
s(S'_perf_bHR_rnd'
p13
F0.8
F0.1
tp14
g3
(g7
S'\xc7\xba\xb8\x8d\x06\xf0V?'
p15
tp16
Rp17
s(S'_perf_bHR_pop'
p18
F0.8
F0.1
tp19
g3
(g7
S'\x94\xf6\x06_\x98Le?'
p20
tp21
Rp22
s(S'_perf_wHR'
p23
F0.8
F0.1
tp24
g3
(g7
S'a{\x04\xa9(\x8bL?'
p25
tp26
Rp27
s.