(dp0
(S'_perf_wHR'
p1
F0.31622776601683794
I1
tp2
cnumpy.core.multiarray
scalar
p3
(cnumpy
dtype
p4
(S'f8'
p5
I0
I1
tp6
Rp7
(I3
S'<'
p8
NNNI-1
I-1
I0
tp9
bS'M\xcd\xabhF\t\xa7?'
p10
tp11
Rp12
s(S'_perf_Novelty'
p13
F0.31622776601683794
I1
tp14
g3
(g7
S'>\xc4\xdd\x9f\x04Z\xdb?'
p15
tp16
Rp17
s(S'_perf_bHR_rnd'
p18
F0.31622776601683794
I1
tp19
g3
(g7
S'C\x1c\xeb\xe26\x1a\xc0?'
p20
tp21
Rp22
s(S'_perf_bHR_pop'
p23
F0.31622776601683794
I1
tp24
g3
(g7
S'\xe1z\x14\xaeG\xe1\xba?'
p25
tp26
Rp27
s.