(dp0
(S'_perf_Novelty'
p1
F0.31622776601683794
I3
tp2
cnumpy.core.multiarray
scalar
p3
(cnumpy
dtype
p4
(S'f8'
p5
I0
I1
tp6
Rp7
(I3
S'<'
p8
NNNI-1
I-1
I0
tp9
bS'}d\xbeZ\xc3Z\xdb?'
p10
tp11
Rp12
s(S'_perf_bHR_pop'
p13
F0.31622776601683794
I3
tp14
g3
(g7
S'\x03\t\x8a\x1fc\xee\xba?'
p15
tp16
Rp17
s(S'_perf_wHR'
p18
F0.31622776601683794
I3
tp19
g3
(g7
S'\x85\xedP\x80@\x1d\xa7?'
p20
tp21
Rp22
s(S'_perf_bHR_rnd'
p23
F0.31622776601683794
I3
tp24
g3
(g7
S'\x1d\xc9\xe5?\xa4\xdf\xbe?'
p25
tp26
Rp27
s.