(dp0
(S'_perf_Novelty'
p1
F0.01
F0.1
tp2
cnumpy.core.multiarray
scalar
p3
(cnumpy
dtype
p4
(S'f8'
p5
I0
I1
tp6
Rp7
(I3
S'<'
p8
NNNI-1
I-1
I0
tp9
bS' *\x90s\xdc\x98\xdb?'
p10
tp11
Rp12
s(S'_perf_bHR_rnd'
p13
F0.01
F0.1
tp14
g3
(g7
S'.\xff!\xfd\xf6u\xc0?'
p15
tp16
Rp17
s(S'_perf_bHR_pop'
p18
F0.01
F0.1
tp19
g3
(g7
S'\x18\x95\xd4\th"\xbc?'
p20
tp21
Rp22
s(S'_perf_wHR'
p23
F0.01
F0.1
tp24
g3
(g7
S'd\xa4\xea\x8d\x9c\xa0\xa8?'
p25
tp26
Rp27
s.