(dp0
(S'_perf_bHR_pop'
p1
F0.9
I1
tp2
cnumpy.core.multiarray
scalar
p3
(cnumpy
dtype
p4
(S'f8'
p5
I0
I1
tp6
Rp7
(I3
S'<'
p8
NNNI-1
I-1
I0
tp9
bS'\x03\t\x8a\x1fc\xee\xaa?'
p10
tp11
Rp12
s(S'_perf_bHR_rnd'
p13
F0.9
I1
tp14
g3
(g7
S'G\x03x\x0b$(\xbe?'
p15
tp16
Rp17
s(S'_perf_Novelty'
p18
F0.9
I1
tp19
g3
(g7
S'\xe3\xdb\xcf\x9cp\xe6\xdd?'
p20
tp21
Rp22
s(S'_perf_wHR'
p23
F0.9
I1
tp24
g3
(g7
S'\x96\x7fq\x11\x08s\xa5?'
p25
tp26
Rp27
s.