(dp0
(S'_perf_wHR'
p1
F0.31622776601683794
I10
tp2
cnumpy.core.multiarray
scalar
p3
(cnumpy
dtype
p4
(S'f8'
p5
I0
I1
tp6
Rp7
(I3
S'<'
p8
NNNI-1
I-1
I0
tp9
bS'ne\x998\x88\x9b\xa7?'
p10
tp11
Rp12
s(S'_perf_bHR_pop'
p13
F0.31622776601683794
I10
tp14
g3
(g7
S'$\x97\xff\x90~\xfb\xba?'
p15
tp16
Rp17
s(S'_perf_bHR_rnd'
p18
F0.31622776601683794
I10
tp19
g3
(g7
S' c\xeeZB>\xc0?'
p20
tp21
Rp22
s(S'_perf_Novelty'
p23
F0.31622776601683794
I10
tp24
g3
(g7
S'\xbb\x10\x0e\xc4\x90`\xdb?'
p25
tp26
Rp27
s.