(dp0
(S'_perf_bHR_pop'
p1
F0.1
I1
tp2
cnumpy.core.multiarray
scalar
p3
(cnumpy
dtype
p4
(S'f8'
p5
I0
I1
tp6
Rp7
(I3
S'<'
p8
NNNI-1
I-1
I0
tp9
bS'\xe6?\xa4\xdf\xbe\x0e\xbc?'
p10
tp11
Rp12
s(S'_perf_bHR_rnd'
p13
F0.1
I1
tp14
g3
(g7
S'\x868\xd6\xc5m4\xc0?'
p15
tp16
Rp17
s(S'_perf_Novelty'
p18
F0.1
I1
tp19
g3
(g7
S'\xa3\x0e\xd3h\x19\x89\xdb?'
p20
tp21
Rp22
s(S'_perf_wHR'
p23
F0.1
I1
tp24
g3
(g7
S'\xee\xa2\xf1\xb0\x8el\xa8?'
p25
tp26
Rp27
s.