(dp0
(S'_perf_bHR_pop'
p1
F0.1
I10
tp2
cnumpy.core.multiarray
scalar
p3
(cnumpy
dtype
p4
(S'f8'
p5
I0
I1
tp6
Rp7
(I3
S'<'
p8
NNNI-1
I-1
I0
tp9
bS'\x07\xce\x19Q\xda\x1b\xbc?'
p10
tp11
Rp12
s(S'_perf_wHR'
p13
F0.1
I10
tp14
g3
(g7
S'\xbf>9\x03\xa1\x03\xa9?'
p15
tp16
Rp17
s(S'_perf_Novelty'
p18
F0.1
I10
tp19
g3
(g7
S'h\xdf\x83\x84\xa1\x92\xdb?'
p20
tp21
Rp22
s(S'_perf_bHR_rnd'
p23
F0.1
I10
tp24
g3
(g7
S'\xfc\xa9\xf1\xd2Mb\xc0?'
p25
tp26
Rp27
s.