(dp0
(S'_perf_Novelty'
p1
F0.03162277660168379
I10
tp2
cnumpy.core.multiarray
scalar
p3
(cnumpy
dtype
p4
(S'f8'
p5
I0
I1
tp6
Rp7
(I3
S'<'
p8
NNNI-1
I-1
I0
tp9
bS'\xa8\xceQ5k\xa5\xdb?'
p10
tp11
Rp12
s(S'_perf_bHR_rnd'
p13
F0.03162277660168379
I10
tp14
g3
(g7
S'\xd0D\xd8\xf0\xf4J\xc1?'
p15
tp16
Rp17
s(S'_perf_bHR_pop'
p18
F0.03162277660168379
I10
tp19
g3
(g7
S'\x18\x95\xd4\th"\xbc?'
p20
tp21
Rp22
s(S'_perf_wHR'
p23
F0.03162277660168379
I10
tp24
g3
(g7
S'B\x9eE{,U\xa9?'
p25
tp26
Rp27
s.