(dp0
(S'_perf_Novelty'
p1
F0.8
F0.1
tp2
cnumpy.core.multiarray
scalar
p3
(cnumpy
dtype
p4
(S'f8'
p5
I0
I1
tp6
Rp7
(I3
S'<'
p8
NNNI-1
I-1
I0
tp9
bS'(\xba\x0f\x15\x9c\xd6\xdd?'
p10
tp11
Rp12
s(S'_perf_bHR_rnd'
p13
F0.8
F0.1
tp14
g3
(g7
S'X9\xb4\xc8v\xbe\xbf?'
p15
tp16
Rp17
s(S'_perf_bHR_pop'
p18
F0.8
F0.1
tp19
g3
(g7
S'\xa85\xcd;N\xd1\xb1?'
p20
tp21
Rp22
s(S'_perf_wHR'
p23
F0.8
F0.1
tp24
g3
(g7
S'\xc8\x0c\x10\x14\x8f\xd2\xa6?'
p25
tp26
Rp27
s.