(dp0
(S'_perf_bHR_rnd'
p1
F0.9
I0
tp2
cnumpy.core.multiarray
scalar
p3
(cnumpy
dtype
p4
(S'f8'
p5
I0
I1
tp6
Rp7
(I3
S'<'
p8
NNNI-1
I-1
I0
tp9
bS'"\x8euq\x1b\r\xc0?'
p10
tp11
Rp12
s(S'_perf_bHR_pop'
p13
F0.9
I0
tp14
g3
(g7
S'\xcc]K\xc8\x07=\xab?'
p15
tp16
Rp17
s(S'_perf_Novelty'
p18
F0.9
I0
tp19
g3
(g7
S'\xb8\xe2\xf6\x9d=\xe3\xdd?'
p20
tp21
Rp22
s(S'_perf_wHR'
p23
F0.9
I0
tp24
g3
(g7
S'h)$\xe2xg\xa5?'
p25
tp26
Rp27
s.