(dp0
(S'_perf_wHR'
p1
F0.5
F0.01
tp2
cnumpy.core.multiarray
scalar
p3
(cnumpy
dtype
p4
(S'f8'
p5
I0
I1
tp6
Rp7
(I3
S'<'
p8
NNNI-1
I-1
I0
tp9
bS'\xfe+zd\xd4\x86\xab?'
p10
tp11
Rp12
s(S'_perf_bHR_pop'
p13
F0.5
F0.01
tp14
g3
(g7
S'k\x9aw\x9c\xa2#\xb9?'
p15
tp16
Rp17
s(S'_perf_bHR_rnd'
p18
F0.5
F0.01
tp19
g3
(g7
S'D\xfa\xed\xeb\xc09\xc3?'
p20
tp21
Rp22
s(S'_perf_Novelty'
p23
F0.5
F0.01
tp24
g3
(g7
S'\xae\xf7(\xed\x97\x15\xde?'
p25
tp26
Rp27
s.