(dp0
(S'_perf_wHR'
p1
F0.01
I3
tp2
cnumpy.core.multiarray
scalar
p3
(cnumpy
dtype
p4
(S'f8'
p5
I0
I1
tp6
Rp7
(I3
S'<'
p8
NNNI-1
I-1
I0
tp9
bS'4\xf0S\x90\xb7\xfa\xa8?'
p10
tp11
Rp12
s(S'_perf_bHR_pop'
p13
F0.01
I3
tp14
g3
(g7
S'\x18\x95\xd4\th"\xbc?'
p15
tp16
Rp17
s(S'_perf_Novelty'
p18
F0.01
I3
tp19
g3
(g7
S'\xdb\x92^\xc9=\x9c\xdb?'
p20
tp21
Rp22
s(S'_perf_bHR_rnd'
p23
F0.01
I3
tp24
g3
(g7
S'\xfa~j\xbct\x93\xc0?'
p25
tp26
Rp27
s.