(dp0
(S'_perf_wHR'
p1
F0.01
F0.5
tp2
cnumpy.core.multiarray
scalar
p3
(cnumpy
dtype
p4
(S'f8'
p5
I0
I1
tp6
Rp7
(I3
S'<'
p8
NNNI-1
I-1
I0
tp9
bS'>1\x7f\xe11\xac\xa8?'
p10
tp11
Rp12
s(S'_perf_bHR_rnd'
p13
F0.01
F0.5
tp14
g3
(g7
S'T\xe3\xa5\x9b\xc4 \xc0?'
p15
tp16
Rp17
s(S'_perf_Novelty'
p18
F0.01
F0.5
tp19
g3
(g7
S't\x88\x16t\x07\x99\xdb?'
p20
tp21
Rp22
s(S'_perf_bHR_pop'
p23
F0.01
F0.5
tp24
g3
(g7
S':#J{\x83/\xbc?'
p25
tp26
Rp27
s.