(dp0
(S'_perf_bHR_pop'
p1
F0.9
I1
tp2
cnumpy.core.multiarray
scalar
p3
(cnumpy
dtype
p4
(S'f8'
p5
I0
I1
tp6
Rp7
(I3
S'<'
p8
NNNI-1
I-1
I0
tp9
bS'\x94\xf6\x06_\x98Le?'
p10
tp11
Rp12
s(S'_perf_bHR_rnd'
p13
F0.9
I1
tp14
g3
(g7
S'\x92\xcb\x7fH\xbf}]?'
p15
tp16
Rp17
s(S'_perf_Novelty'
p18
F0.9
I1
tp19
g3
(g7
S'*\x17x\xe2\xbd\xc7\xe3?'
p20
tp21
Rp22
s(S'_perf_wHR'
p23
F0.9
I1
tp24
g3
(g7
S'?7t8\x08\xd3G?'
p25
tp26
Rp27
s.