(dp0
(S'_perf_Novelty'
p1
F0.2
F0.1
tp2
cnumpy.core.multiarray
scalar
p3
(cnumpy
dtype
p4
(S'f8'
p5
I0
I1
tp6
Rp7
(I3
S'<'
p8
NNNI-1
I-1
I0
tp9
bS'\xfc\x1dt\xa4\xce\xa8\xe3?'
p10
tp11
Rp12
s(S'_perf_bHR_rnd'
p13
F0.2
F0.1
tp14
g3
(g7
S'a2U0*\xa9c?'
p15
tp16
Rp17
s(S'_perf_bHR_pop'
p18
F0.2
F0.1
tp19
g3
(g7
S'{\x14\xaeG\xe1zt?'
p20
tp21
Rp22
s(S'_perf_wHR'
p23
F0.2
F0.1
tp24
g3
(g7
S'>I\x11#\xc8\x7fX?'
p25
tp26
Rp27
s.