(dp0
(S'_perf_Novelty'
p1
I1
I3
tp2
cnumpy.core.multiarray
scalar
p3
(cnumpy
dtype
p4
(S'f8'
p5
I0
I1
tp6
Rp7
(I3
S'<'
p8
NNNI-1
I-1
I0
tp9
bS'@\x90}\x83\x93\r\xe2?'
p10
tp11
Rp12
s(S'_perf_bHR_pop'
p13
I1
I3
tp14
g3
(g7
S'F%u\x02\x9a\x08k?'
p15
tp16
Rp17
s(S'_perf_wHR'
p18
I1
I3
tp19
g3
(g7
S'\x9a\x83I\x97\xdf`=?'
p20
tp21
Rp22
s(S'_perf_bHR_rnd'
p23
I1
I3
tp24
g3
(g7
S'a2U0*\xa9S?'
p25
tp26
Rp27
s.