(dp0
(S'_perf_wHR'
p1
F0.1
I0
tp2
cnumpy.core.multiarray
scalar
p3
(cnumpy
dtype
p4
(S'f8'
p5
I0
I1
tp6
Rp7
(I3
S'<'
p8
NNNI-1
I-1
I0
tp9
bS'y9\x9a\x9eg\x8c\xaf?'
p10
tp11
Rp12
s(S'_perf_bHR_rnd'
p13
F0.1
I0
tp14
g3
(g7
S'\x83QI\x9d\x80&\xc2?'
p15
tp16
Rp17
s(S'_perf_Novelty'
p18
F0.1
I0
tp19
g3
(g7
S'/:f\xcd\xe5\x95\xde?'
p20
tp21
Rp22
s(S'_perf_bHR_pop'
p23
F0.1
I0
tp24
g3
(g7
S'\xa7\xe8H.\xff!\xbd?'
p25
tp26
Rp27
s.