(dp0
(S'_perf_bHR_pop'
p1
F0.8
S'cos'
p2
tp3
cnumpy.core.multiarray
scalar
p4
(cnumpy
dtype
p5
(S'f8'
p6
I0
I1
tp7
Rp8
(I3
S'<'
p9
NNNI-1
I-1
I0
tp10
bS'\xa85\xcd;N\xd1\xb1?'
p11
tp12
Rp13
s(S'_perf_wHR'
p14
F0.8
g2
tp15
g4
(g8
S'\xc8\x0c\x10\x14\x8f\xd2\xa6?'
p16
tp17
Rp18
s(S'_perf_Novelty'
p19
F0.8
g2
tp20
g4
(g8
S'e\xf1\x92u\x9f\xd5\xdd?'
p21
tp22
Rp23
s(S'_perf_bHR_rnd'
p24
F0.8
g2
tp25
g4
(g8
S'\xc5\x8f1w-!\xbf?'
p26
tp27
Rp28
s.