(dp0
(S'_perf_bHR_pop'
p1
F0.01
S'cos'
p2
tp3
cnumpy.core.multiarray
scalar
p4
(cnumpy
dtype
p5
(S'f8'
p6
I0
I1
tp7
Rp8
(I3
S'<'
p9
NNNI-1
I-1
I0
tp10
bS'\xea\x044\x116<\xbd?'
p11
tp12
Rp13
s(S'_perf_wHR'
p14
F0.01
g2
tp15
g4
(g8
S'\x84Ny\xd0Z\x00\xb0?'
p16
tp17
Rp18
s(S'_perf_Novelty'
p19
F0.01
g2
tp20
g4
(g8
S'K\xb4,L4\xad\xde?'
p21
tp22
Rp23
s(S'_perf_bHR_rnd'
p24
F0.01
g2
tp25
g4
(g8
S'\x94\x87\x85Z\xd3\xbc\xc3?'
p26
tp27
Rp28
s.