(dp0
(S'_perf_Novelty'
p1
F0.2
F0.1
tp2
cnumpy.core.multiarray
scalar
p3
(cnumpy
dtype
p4
(S'f8'
p5
I0
I1
tp6
Rp7
(I3
S'<'
p8
NNNI-1
I-1
I0
tp9
bS'\xfe|? \xeb\xc0\xd0?'
p10
tp11
Rp12
s(S'_perf_bHR_rnd'
p13
F0.2
F0.1
tp14
g3
(g7
S'\xbb\xf3\x81e\x9e,\xc0?'
p15
tp16
Rp17
s(S'_perf_bHR_pop'
p18
F0.2
F0.1
tp19
g3
(g7
S'\xc3\xa6\xdfmQ\x8a\xc8?'
p20
tp21
Rp22
s(S'_perf_wHR'
p23
F0.2
F0.1
tp24
g3
(g7
S'\x85\xea\xc4\xa6\xba\x8e\xab?'
p25
tp26
Rp27
s.