(dp0
(S'_perf_bHR_rnd'
p1
F0.5
I10
tp2
cnumpy.core.multiarray
scalar
p3
(cnumpy
dtype
p4
(S'f8'
p5
I0
I1
tp6
Rp7
(I3
S'<'
p8
NNNI-1
I-1
I0
tp9
bS'\xbdJ.g\xf5\xd8q?'
p10
tp11
Rp12
s(S'_perf_Novelty'
p13
F0.5
I10
tp14
g3
(g7
S'y\xb9\xd5\x05r\xc5\xee?'
p15
tp16
Rp17
s(S'_perf_wHR'
p18
F0.5
I10
tp19
g3
(g7
S'@\xce\xb3\x02h\x80@?'
p20
tp21
Rp22
s(S'_perf_bHR_pop'
p23
F0.5
I10
tp24
g3
(g7
S'\xbdJ.g\xf5\xd8a?'
p25
tp26
Rp27
s.