(dp0
(S'_perf_bHR_pop'
p1
F0.5
F0.001
tp2
cnumpy.core.multiarray
scalar
p3
(cnumpy
dtype
p4
(S'f8'
p5
I0
I1
tp6
Rp7
(I3
S'<'
p8
NNNI-1
I-1
I0
tp9
bS'\xca\x02\x91t\xad;\xbf?'
p10
tp11
Rp12
s(S'_perf_Novelty'
p13
F0.5
F0.001
tp14
g3
(g7
S'\xf771\xf3\xd3\x8b\x9e\xbf'
p15
tp16
Rp17
s(S'_perf_wHR'
p18
F0.5
F0.001
tp19
g3
(g7
S'\x02\xd4\x18\xdd\x15\xf4\xa3?'
p20
tp21
Rp22
s(S'_perf_bHR_rnd'
p23
F0.5
F0.001
tp24
g3
(g7
S'q\xe2\xfe\xc57T\xbb?'
p25
tp26
Rp27
s.