(dp0
(S'_perf_bHR_pop'
p1
F0.2
I1
tp2
cnumpy.core.multiarray
scalar
p3
(cnumpy
dtype
p4
(S'f8'
p5
I0
I1
tp6
Rp7
(I3
S'<'
p8
NNNI-1
I-1
I0
tp9
bS'\x97\x96\x96\x96\x96\x96\xc6?'
p10
tp11
Rp12
s(S'_perf_bHR_rnd'
p13
F0.2
I1
tp14
g3
(g7
S'\xca\x02\x91t\xad;\x9f?'
p15
tp16
Rp17
s(S'_perf_Novelty'
p18
F0.2
I1
tp19
g3
(g7
S's\xde;\xcc@l\xec?'
p20
tp21
Rp22
s(S'_perf_wHR'
p23
F0.2
I1
tp24
g3
(g7
S'*M\xb4\xf4\xb7\xdc\x88?'
p25
tp26
Rp27
s.