(dp0
(S'_perf_Novelty'
p1
F0.5
I0
tp2
cnumpy.core.multiarray
scalar
p3
(cnumpy
dtype
p4
(S'f8'
p5
I0
I1
tp6
Rp7
(I3
S'<'
p8
NNNI-1
I-1
I0
tp9
bS'6\x98K\x7f\x8e=\x9f\xbf'
p10
tp11
Rp12
s(S'_perf_bHR_pop'
p13
F0.5
I0
tp14
g3
(g7
S't\x90W\xc9\xe5\xac\xbe?'
p15
tp16
Rp17
s(S'_perf_bHR_rnd'
p18
F0.5
I0
tp19
g3
(g7
S'\x1c\xc7q\x1c\xc7q\xbc?'
p20
tp21
Rp22
s(S'_perf_wHR'
p23
F0.5
I0
tp24
g3
(g7
S'\x93\x99\r\xca\xe1\xf7\xa3?'
p25
tp26
Rp27
s.