(dp0
(S'_perf_Novelty'
p1
F0.2
F0.01
tp2
cnumpy.core.multiarray
scalar
p3
(cnumpy
dtype
p4
(S'f8'
p5
I0
I1
tp6
Rp7
(I3
S'<'
p8
NNNI-1
I-1
I0
tp9
bS']\r{\xe9\x83)\x85\xbf'
p10
tp11
Rp12
s(S'_perf_bHR_rnd'
p13
F0.2
F0.01
tp14
g3
(g7
S'g\xd8\xf4\xbb-J\xc1?'
p15
tp16
Rp17
s(S'_perf_bHR_pop'
p18
F0.2
F0.01
tp19
g3
(g7
S'\xee_|C\xb5\xd1\xc8?'
p20
tp21
Rp22
s(S'_perf_wHR'
p23
F0.2
F0.01
tp24
g3
(g7
S'\xf6a\xf4-\x9d\xbb\xa7?'
p25
tp26
Rp27
s.