(dp0
(S'_perf_wHR'
p1
F0.2
I0
tp2
cnumpy.core.multiarray
scalar
p3
(cnumpy
dtype
p4
(S'f8'
p5
I0
I1
tp6
Rp7
(I3
S'<'
p8
NNNI-1
I-1
I0
tp9
bS'\xefMd\xad\xb8M\xaa?'
p10
tp11
Rp12
s(S'_perf_bHR_rnd'
p13
F0.2
I0
tp14
g3
(g7
S'a\xc3\xd3+e\x19\xc2?'
p15
tp16
Rp17
s(S'_perf_Novelty'
p18
F0.2
I0
tp19
g3
(g7
S'\x95\xed\xdc\x96\x10\xa1\xdd?'
p20
tp21
Rp22
s(S'_perf_bHR_pop'
p23
F0.2
I0
tp24
g3
(g7
S'O\xaf\x94e\x88c\xbd?'
p25
tp26
Rp27
s.