(dp0
(S'_perf_bHR_rnd'
p1
F0.5
I2
tp2
cnumpy.core.multiarray
scalar
p3
(cnumpy
dtype
p4
(S'f8'
p5
I0
I1
tp6
Rp7
(I3
S'<'
p8
NNNI-1
I-1
I0
tp9
bS'\xbdJ.g\xf5\xd8\x81?'
p10
tp11
Rp12
s(S'_perf_Novelty'
p13
F0.5
I2
tp14
g3
(g7
S'B\xb8\xf1\xa5"+\xee?'
p15
tp16
Rp17
s(S'_perf_wHR'
p18
F0.5
I2
tp19
g3
(g7
S'\xc1\xc8\xd7\x11\x18\xaaK?'
p20
tp21
Rp22
s(S'_perf_bHR_pop'
p23
F0.5
I2
tp24
g3
(g7
S'\xbdJ.g\xf5\xd8q?'
p25
tp26
Rp27
s.