(dp0
(S'_perf_bHR_pop'
p1
F0.5
F0.001
tp2
cnumpy.core.multiarray
scalar
p3
(cnumpy
dtype
p4
(S'f8'
p5
I0
I1
tp6
Rp7
(I3
S'<'
p8
NNNI-1
I-1
I0
tp9
bS'\x95?\xea\x94?\xea\xc4?'
p10
tp11
Rp12
s(S'_perf_Novelty'
p13
F0.5
F0.001
tp14
g3
(g7
S'\x8d\xcf\xa0H\x84ca?'
p15
tp16
Rp17
s(S'_perf_wHR'
p18
F0.5
F0.001
tp19
g3
(g7
S'\xe0\x8e\xe5!p\x80\xa9?'
p20
tp21
Rp22
s(S'_perf_bHR_rnd'
p23
F0.5
F0.001
tp24
g3
(g7
S'\xc5\xfd\x8bo\xa86\xca?'
p25
tp26
Rp27
s.