(dp0
(S'_perf_bHR_pop'
p1
F0.1
I2
tp2
cnumpy.core.multiarray
scalar
p3
(cnumpy
dtype
p4
(S'f8'
p5
I0
I1
tp6
Rp7
(I3
S'<'
p8
NNNI-1
I-1
I0
tp9
bS'\xbe\xa1\xdahL\x85\xc3?'
p10
tp11
Rp12
s(S'_perf_wHR'
p13
F0.1
I2
tp14
g3
(g7
S'\xf3\x83\x15%\xf5\x85|?'
p15
tp16
Rp17
s(S'_perf_Novelty'
p18
F0.1
I2
tp19
g3
(g7
S'!\xdc+\xa5\x89\xb7\xed?'
p20
tp21
Rp22
s(S'_perf_bHR_rnd'
p23
F0.1
I2
tp24
g3
(g7
S'\xc0\xf8\x86j\xa31\xa5?'
p25
tp26
Rp27
s.