(dp0
(S'_perf_bHR_rnd'
p1
F0.3
F0.01
tp2
cnumpy.core.multiarray
scalar
p3
(cnumpy
dtype
p4
(S'f8'
p5
I0
I1
tp6
Rp7
(I3
S'<'
p8
NNNI-1
I-1
I0
tp9
bS'\x16k\xc0\x15k\xc0\xc5?'
p10
tp11
Rp12
s(S'_perf_Novelty'
p13
F0.3
F0.01
tp14
g3
(g7
S'f\xb6e\x86\xba\n\x8b?'
p15
tp16
Rp17
s(S'_perf_wHR'
p18
F0.3
F0.01
tp19
g3
(g7
S'\xdc\x85\xa0*\x84\xc9\xab?'
p20
tp21
Rp22
s(S'_perf_bHR_pop'
p23
F0.3
F0.01
tp24
g3
(g7
S' u\xca\x1fu\xca\xcf?'
p25
tp26
Rp27
s.