(dp0
(S'_perf_wHR'
p1
F0.3
I1
tp2
cnumpy.core.multiarray
scalar
p3
(cnumpy
dtype
p4
(S'f8'
p5
I0
I1
tp6
Rp7
(I3
S'<'
p8
NNNI-1
I-1
I0
tp9
bS'v\x94\x80.\xa8B\x8c?'
p10
tp11
Rp12
s(S'_perf_Novelty'
p13
F0.3
I1
tp14
g3
(g7
S'\x85\xa2l\xfbw\xef\xeb?'
p15
tp16
Rp17
s(S'_perf_bHR_rnd'
p18
F0.3
I1
tp19
g3
(g7
S'h/\xa1\xbd\x84\xf6\xa2?'
p20
tp21
Rp22
s(S'_perf_bHR_pop'
p23
F0.3
I1
tp24
g3
(g7
S'\x17\xc2l\x17\xc2l\xc7?'
p25
tp26
Rp27
s.