(dp0
(S'_perf_bHR_pop'
p1
F0.9
S'cos'
p2
tp3
cnumpy.core.multiarray
scalar
p4
(cnumpy
dtype
p5
(S'f8'
p6
I0
I1
tp7
Rp8
(I3
S'<'
p9
NNNI-1
I-1
I0
tp10
bS'\x1bp\xc5\x1ap\xc5\x9a?'
p11
tp12
Rp13
s(S'_perf_wHR'
p14
F0.9
g2
tp15
g4
(g8
S'A\x13\xe9\x98\xa0\xfd\x98?'
p16
tp17
Rp18
s(S'_perf_Novelty'
p19
F0.9
g2
tp20
g4
(g8
S'\x87\xaa6\x93\x84H\x9f\xbf'
p21
tp22
Rp23
s(S'_perf_bHR_rnd'
p24
F0.9
g2
tp25
g4
(g8
S'\xbdJ.g\xf5\xd8\xb1?'
p26
tp27
Rp28
s.