(dp0
(S'_perf_bHR_rnd'
p1
F0.5
S'cos'
p2
tp3
cnumpy.core.multiarray
scalar
p4
(cnumpy
dtype
p5
(S'f8'
p6
I0
I1
tp7
Rp8
(I3
S'<'
p9
NNNI-1
I-1
I0
tp10
bS'\x1bp\xc5\x1ap\xc5\xba?'
p11
tp12
Rp13
s(S'_perf_Novelty'
p14
F0.5
g2
tp15
g4
(g8
S'\x07Y\x9e\xf2\xd4^\x9f\xbf'
p16
tp17
Rp18
s(S'_perf_wHR'
p19
F0.5
g2
tp20
g4
(g8
S'\x93\x99\r\xca\xe1\xf7\xa3?'
p21
tp22
Rp23
s(S'_perf_bHR_pop'
p24
F0.5
g2
tp25
g4
(g8
S'\xca\x02\x91t\xad;\xbf?'
p26
tp27
Rp28
s.