(dp0
(S'_perf_bHR_pop'
p1
F0.05
S'cos'
p2
tp3
cnumpy.core.multiarray
scalar
p4
(cnumpy
dtype
p5
(S'f8'
p6
I0
I1
tp7
Rp8
(I3
S'<'
p9
NNNI-1
I-1
I0
tp10
bS'h/\xa1\xbd\x84\xf6\xd2?'
p11
tp12
Rp13
s(S'_perf_wHR'
p14
F0.05
g2
tp15
g4
(g8
S'@\xaa.\xc0\x8dX\xac?'
p16
tp17
Rp18
s(S'_perf_Novelty'
p19
F0.05
g2
tp20
g4
(g8
S'\xd7gJ\x1c\xb0\xa8\x8b?'
p21
tp22
Rp23
s(S'_perf_bHR_rnd'
p24
F0.05
g2
tp25
g4
(g8
S'\xc2O3l\xfa\xdd\xc6?'
p26
tp27
Rp28
s.