(dp0
(S'_perf_bHR_pop'
p1
F0.1
S'cos'
p2
tp3
cnumpy.core.multiarray
scalar
p4
(cnumpy
dtype
p5
(S'f8'
p6
I0
I1
tp7
Rp8
(I3
S'<'
p9
NNNI-1
I-1
I0
tp10
bS'\x9c\x9b\x9b\x9b\x9b\x9b\xcb?'
p11
tp12
Rp13
s(S'_perf_wHR'
p14
F0.1
g2
tp15
g4
(g8
S'\xb7\xf1\xef\xf0\xb5\xf6\xa7?'
p16
tp17
Rp18
s(S'_perf_Novelty'
p19
F0.1
g2
tp20
g4
(g8
S'\xdc\x00\x12\x90y\xb1\x90\xbf'
p21
tp22
Rp23
s(S'_perf_bHR_rnd'
p24
F0.1
g2
tp25
g4
(g8
S'\xe6\xac\x1e;\x02t\xc0?'
p26
tp27
Rp28
s.