(dp0
(S'_perf_bHR_rnd'
p1
F0.5
S'cos'
p2
tp3
cnumpy.core.multiarray
scalar
p4
(cnumpy
dtype
p5
(S'f8'
p6
I0
I1
tp7
Rp8
(I3
S'<'
p9
NNNI-1
I-1
I0
tp10
bS'\x16k\xc0\x15k\xc0\xc5?'
p11
tp12
Rp13
s(S'_perf_Novelty'
p14
F0.5
g2
tp15
g4
(g8
S'\x9d\xb1\xac\xc7\xe4\xd4X?'
p16
tp17
Rp18
s(S'_perf_wHR'
p19
F0.5
g2
tp20
g4
(g8
S'\xeb~\xc2Zos\xa9?'
p21
tp22
Rp23
s(S'_perf_bHR_pop'
p24
F0.5
g2
tp25
g4
(g8
S'j\x86M\xbf\xdb\xa2\xc4?'
p26
tp27
Rp28
s.