(dp0
(S'_perf_wHR'
p1
F0.2
F0.001
tp2
cnumpy.core.multiarray
scalar
p3
(cnumpy
dtype
p4
(S'f8'
p5
I0
I1
tp6
Rp7
(I3
S'<'
p8
NNNI-1
I-1
I0
tp9
bS'\x04bm\xb4\x8d|\xa7?'
p10
tp11
Rp12
s(S'_perf_bHR_pop'
p13
F0.2
F0.001
tp14
g3
(g7
S'\xc3\xa6\xdfmQ\x8a\xc8?'
p15
tp16
Rp17
s(S'_perf_Novelty'
p18
F0.2
F0.001
tp19
g3
(g7
S'A\xbd\x80;\xa6u\x93\xbf'
p20
tp21
Rp22
s(S'_perf_bHR_rnd'
p23
F0.2
F0.001
tp24
g3
(g7
S'\xbdJ.g\xf5\xd8\xc1?'
p25
tp26
Rp27
s.