(dp0
(S'_perf_Novelty'
p1
F0.9
F0.01
tp2
cnumpy.core.multiarray
scalar
p3
(cnumpy
dtype
p4
(S'f8'
p5
I0
I1
tp6
Rp7
(I3
S'<'
p8
NNNI-1
I-1
I0
tp9
bS'\x00\xf4"\xf4\xcfu\x9a\xbf'
p10
tp11
Rp12
s(S'_perf_bHR_rnd'
p13
F0.9
F0.01
tp14
g3
(g7
S'o\x8bR\xc4\xe0\xa7\xa9?'
p15
tp16
Rp17
s(S'_perf_bHR_pop'
p18
F0.9
F0.01
tp19
g3
(g7
S'\x1bp\xc5\x1ap\xc5\x9a?'
p20
tp21
Rp22
s(S'_perf_wHR'
p23
F0.9
F0.01
tp24
g3
(g7
S'\xef\\P\xcf\x10l\x98?'
p25
tp26
Rp27
s.