(dp0
(S'_perf_wHR'
p1
F0.2
F0.001
tp2
cnumpy.core.multiarray
scalar
p3
(cnumpy
dtype
p4
(S'f8'
p5
I0
I1
tp6
Rp7
(I3
S'<'
p8
NNNI-1
I-1
I0
tp9
bS'\x06\x13\xb1\x8a\xca<\xac?'
p10
tp11
Rp12
s(S'_perf_bHR_pop'
p13
F0.2
F0.001
tp14
g3
(g7
S'\x11f\xbb\x10f\xbb\xd0?'
p15
tp16
Rp17
s(S'_perf_Novelty'
p18
F0.2
F0.001
tp19
g3
(g7
S'\x84\x99\xae@\x18\x18\x85?'
p20
tp21
Rp22
s(S'_perf_bHR_rnd'
p23
F0.2
F0.001
tp24
g3
(g7
S'o\x8bR\xc4\xe0\xa7\xc9?'
p25
tp26
Rp27
s.