(dp0
(S'_perf_bHR_rnd'
p1
F0.5
I1
tp2
cnumpy.core.multiarray
scalar
p3
(cnumpy
dtype
p4
(S'f8'
p5
I0
I1
tp6
Rp7
(I3
S'<'
p8
NNNI-1
I-1
I0
tp9
bS'r9\xab\xc7\x8e\x00\x9d?'
p10
tp11
Rp12
s(S'_perf_bHR_pop'
p13
F0.5
I1
tp14
g3
(g7
S'\xe6\xac\x1e;\x02t\xc0?'
p15
tp16
Rp17
s(S'_perf_wHR'
p18
F0.5
I1
tp19
g3
(g7
S'\xab\xc0m\xd5\x7fW\x84?'
p20
tp21
Rp22
s(S'_perf_Novelty'
p23
F0.5
I1
tp24
g3
(g7
S"\x0cV\x8b\x9c\xaa'\xec?"
p25
tp26
Rp27
s.