(dp0
(S'_perf_Novelty'
p1
F0.2
F0.1
tp2
cnumpy.core.multiarray
scalar
p3
(cnumpy
dtype
p4
(S'f8'
p5
I0
I1
tp6
Rp7
(I3
S'<'
p8
NNNI-1
I-1
I0
tp9
bS'\xfd?_x\xc7\xc2\xd0?'
p10
tp11
Rp12
s(S'_perf_bHR_rnd'
p13
F0.2
F0.1
tp14
g3
(g7
S'\xc8\xab\xe4rV\x8f\xcd?'
p15
tp16
Rp17
s(S'_perf_bHR_pop'
p18
F0.2
F0.1
tp19
g3
(g7
S'g\xd8\xf4\xbb-J\xd1?'
p20
tp21
Rp22
s(S'_perf_wHR'
p23
F0.2
F0.1
tp24
g3
(g7
S'G%_\x0f\x06\xb4\xb1?'
p25
tp26
Rp27
s.