(dp0
(S'_perf_wHR'
p1
F0.2
I0
tp2
cnumpy.core.multiarray
scalar
p3
(cnumpy
dtype
p4
(S'f8'
p5
I0
I1
tp6
Rp7
(I3
S'<'
p8
NNNI-1
I-1
I0
tp9
bS'\x9aW\xd5\x9b\x14%\xa7?'
p10
tp11
Rp12
s(S'_perf_bHR_rnd'
p13
F0.2
I0
tp14
g3
(g7
S'r9\xab\xc7\x8e\x00\xbd?'
p15
tp16
Rp17
s(S'_perf_Novelty'
p18
F0.2
I0
tp19
g3
(g7
S'\xeb\xdcv\xf6H\xb4\x93\xbf'
p20
tp21
Rp22
s(S'_perf_bHR_pop'
p23
F0.2
I0
tp24
g3
(g7
S'\xc3\xa6\xdfmQ\x8a\xc8?'
p25
tp26
Rp27
s.