(dp0
(S'_perf_Novelty'
p1
F0.2
F0.01
tp2
cnumpy.core.multiarray
scalar
p3
(cnumpy
dtype
p4
(S'f8'
p5
I0
I1
tp6
Rp7
(I3
S'<'
p8
NNNI-1
I-1
I0
tp9
bS'V\x8b?\xf5\xc6\xac\x90?'
p10
tp11
Rp12
s(S'_perf_bHR_rnd'
p13
F0.2
F0.01
tp14
g3
(g7
S'B{\t\xed%\xb4\xc7?'
p15
tp16
Rp17
s(S'_perf_bHR_pop'
p18
F0.2
F0.01
tp19
g3
(g7
S'<\x1fX\xe6\xc9\x02\xd1?'
p20
tp21
Rp22
s(S'_perf_wHR'
p23
F0.2
F0.01
tp24
g3
(g7
S',\x89\x15\xc8no\xac?'
p25
tp26
Rp27
s.