(dp0
(S'_perf_bHR_rnd'
p1
F0.5
I1
tp2
cnumpy.core.multiarray
scalar
p3
(cnumpy
dtype
p4
(S'f8'
p5
I0
I1
tp6
Rp7
(I3
S'<'
p8
NNNI-1
I-1
I0
tp9
bS'\x11f\xbb\x10f\xbb\xa0?'
p10
tp11
Rp12
s(S'_perf_bHR_pop'
p13
F0.5
I1
tp14
g3
(g7
S'\x19\x19\x19\x19\x19\x19\xb9?'
p15
tp16
Rp17
s(S'_perf_wHR'
p18
F0.5
I1
tp19
g3
(g7
S' )\xec\xa0p\xe5z?'
p20
tp21
Rp22
s(S'_perf_Novelty'
p23
F0.5
I1
tp24
g3
(g7
S'sErgW\xab\xec?'
p25
tp26
Rp27
s.