(dp0
(S'_perf_wHR'
p1
F0.8
I0
tp2
cnumpy.core.multiarray
scalar
p3
(cnumpy
dtype
p4
(S'f8'
p5
I0
I1
tp6
Rp7
(I3
S'<'
p8
NNNI-1
I-1
I0
tp9
bS'*\xea\xe7a\x82`\x9b?'
p10
tp11
Rp12
s(S'_perf_bHR_rnd'
p13
F0.8
I0
tp14
g3
(g7
S'g\xd8\xf4\xbb-J\xb1?'
p15
tp16
Rp17
s(S'_perf_Novelty'
p18
F0.8
I0
tp19
g3
(g7
S'\x83\xdaY\x94]i\xa0\xbf'
p20
tp21
Rp22
s(S'_perf_bHR_pop'
p23
F0.8
I0
tp24
g3
(g7
S'\x17\xc2l\x17\xc2l\xa7?'
p25
tp26
Rp27
s.