(dp0
(S'_perf_bHR_pop'
p1
F0.9
S'bn'
p2
tp3
cnumpy.core.multiarray
scalar
p4
(cnumpy
dtype
p5
(S'f8'
p6
I0
I1
tp7
Rp8
(I3
S'<'
p9
NNNI-1
I-1
I0
tp10
bS'\x9a\x99\x99\x99\x99\x99\xc9?'
p11
tp12
Rp13
s(S'_perf_wHR'
p14
F0.9
g2
tp15
g4
(g8
S'Nf\xfc\x8e\x1a\x98\xd9?'
p16
tp17
Rp18
s(S'_perf_Novelty'
p19
F0.9
g2
tp20
g4
(g8
S'J\x0c\x02+\x87\x16\xd9?'
p21
tp22
Rp23
s(S'_perf_bHR_rnd'
p24
F0.9
g2
tp25
g4
(g8
S'\x9a\x99\x99\x99\x99\x99\xd9?'
p26
tp27
Rp28
s.