(dp0
(S'_perf_bHR_pop'
p1
F0.1
I1
tp2
cnumpy.core.multiarray
scalar
p3
(cnumpy
dtype
p4
(S'f8'
p5
I0
I1
tp6
Rp7
(I3
S'<'
p8
NNNI-1
I-1
I0
tp9
bS'-C\x1c\xeb\xe26:?'
p10
tp11
Rp12
s(S'_perf_bHR_rnd'
p13
F0.1
I1
tp14
g3
(g7
S'\xc7\xba\xb8\x8d\x06\xf0V?'
p15
tp16
Rp17
s(S'_perf_Novelty'
p18
F0.1
I1
tp19
g3
(g7
S'\xb3\xc1k\x1cR\xcd\xe3?'
p20
tp21
Rp22
s(S'_perf_wHR'
p23
F0.1
I1
tp24
g3
(g7
S'w\x01mT\xa5i ?'
p25
tp26
Rp27
s.