(dp0
S'_perf_Novelty'
p1
cnumpy.core.multiarray
scalar
p2
(cnumpy
dtype
p3
(S'f8'
p4
I0
I1
tp5
Rp6
(I3
S'<'
p7
NNNI-1
I-1
I0
tp8
bS'\x96\xca\x9d~\xe1j\xdc?'
p9
tp10
Rp11
sS'_perf_bHR_rnd'
p12
g2
(g6
S'D\x8bl\xe7\xfb\xa9\xc1?'
p13
tp14
Rp15
sS'_perf_bHR_pop'
p16
g2
(g6
S')\xed\r\xbe0\x99\xba?'
p17
tp18
Rp19
sS'_perf_wHR'
p20
g2
(g6
S'#\x13\x1c\xd1\x96\xa1\xac?'
p21
tp22
Rp23
s.