(dp0
(S'_perf_bHR_pop'
p1
F0.8
I1
tp2
cnumpy.core.multiarray
scalar
p3
(cnumpy
dtype
p4
(S'f8'
p5
I0
I1
tp6
Rp7
(I3
S'<'
p8
NNNI-1
I-1
I0
tp9
bS'\r\xa0\xa1\xc4\xc2(\x80?'
p10
tp11
Rp12
s(S'_perf_bHR_rnd'
p13
F0.8
I1
tp14
g3
(g7
S'\xa8\x19\x88\x0c04\x82?'
p15
tp16
Rp17
s(S'_perf_Novelty'
p18
F0.8
I1
tp19
g3
(g7
S'<@\xf3\x06\x08\xd2\xdb?'
p20
tp21
Rp22
s(S'_perf_wHR'
p23
F0.8
I1
tp24
g3
(g7
S'V[\xd3\xa5\x8dQc?'
p25
tp26
Rp27
s.