(dp0
(S'_perf_bHR_pop'
p1
F0.9
I2
tp2
cnumpy.core.multiarray
scalar
p3
(cnumpy
dtype
p4
(S'f8'
p5
I0
I1
tp6
Rp7
(I3
S'<'
p8
NNNI-1
I-1
I0
tp9
bS'\x18\x80\x8d\xbf\xfaVn?'
p10
tp11
Rp12
s(S'_perf_wHR'
p13
F0.9
I2
tp14
g3
(g7
S"F\xe2z'\xf4\x11I?"
p15
tp16
Rp17
s(S'_perf_Novelty'
p18
F0.9
I2
tp19
g3
(g7
S'\x9d\xd0D\xb5\xa6;\xdc?'
p20
tp21
Rp22
s(S'_perf_bHR_rnd'
p23
F0.9
I2
tp24
g3
(g7
S'\xe2\xcc\xa7\x1d\xf9\xe8j?'
p25
tp26
Rp27
s.