(dp0
(S'_perf_bHR_rnd'
p1
F0.9
F0.001
tp2
cnumpy.core.multiarray
scalar
p3
(cnumpy
dtype
p4
(S'f8'
p5
I0
I1
tp6
Rp7
(I3
S'<'
p8
NNNI-1
I-1
I0
tp9
bS"J\xef\xe0'qI\xbc?"
p10
tp11
Rp12
s(S'_perf_wHR'
p13
F0.9
F0.001
tp14
g3
(g7
S'.C\xf2\x8d\x1d\x13\x9f?'
p15
tp16
Rp17
s(S'_perf_Novelty'
p18
F0.9
F0.001
tp19
g3
(g7
S'\x17|\xe1\x88O\x05\xab\xbf'
p20
tp21
Rp22
s(S'_perf_bHR_pop'
p23
F0.9
F0.001
tp24
g3
(g7
S'\xa7Uaf\xba\xad\xb0?'
p25
tp26
Rp27
s.