(dp0
(S'_perf_bHR_rnd'
p1
F0.3
F0.1
tp2
cnumpy.core.multiarray
scalar
p3
(cnumpy
dtype
p4
(S'f8'
p5
I0
I1
tp6
Rp7
(I3
S'<'
p8
NNNI-1
I-1
I0
tp9
bS'\xde\xb4*\xccL\xb7\xb5?'
p10
tp11
Rp12
s(S'_perf_Novelty'
p13
F0.3
F0.1
tp14
g3
(g7
S'\xc7\x0f~\xb3\x99\x14\xd4?'
p15
tp16
Rp17
s(S'_perf_wHR'
p18
F0.3
F0.1
tp19
g3
(g7
S'x]\xf2p\xb0\xac\x9a?'
p20
tp21
Rp22
s(S'_perf_bHR_pop'
p23
F0.3
F0.1
tp24
g3
(g7
S'\xacu](\xa0\x9a\xb7?'
p25
tp26
Rp27
s.