(dp0
(S'_perf_wHR'
p1
F0.3
I0
tp2
cnumpy.core.multiarray
scalar
p3
(cnumpy
dtype
p4
(S'f8'
p5
I0
I1
tp6
Rp7
(I3
S'<'
p8
NNNI-1
I-1
I0
tp9
bS'\xf5\xcd\x88\xbc\xb4K\xa2?'
p10
tp11
Rp12
s(S'_perf_Novelty'
p13
F0.3
I0
tp14
g3
(g7
S'\xcc\x93\x80@\x81Z\xa7\xbf'
p15
tp16
Rp17
s(S'_perf_bHR_pop'
p18
F0.3
I0
tp19
g3
(g7
S'\x14\xf8\xa2\xbb\xab\xa6\xb8?'
p20
tp21
Rp22
s(S'_perf_bHR_rnd'
p23
F0.3
I0
tp24
g3
(g7
S'\xda\xaa\x07Z\x08A\xc0?'
p25
tp26
Rp27
s.