(dp0
(S'_perf_wHR'
p1
F0.8
F0.001
tp2
cnumpy.core.multiarray
scalar
p3
(cnumpy
dtype
p4
(S'f8'
p5
I0
I1
tp6
Rp7
(I3
S'<'
p8
NNNI-1
I-1
I0
tp9
bS'\x0fu\x95\xe2\xc1\x1e\xa0?'
p10
tp11
Rp12
s(S'_perf_bHR_pop'
p13
F0.8
F0.001
tp14
g3
(g7
S'\xdct\xa6&\x10k\xb2?'
p15
tp16
Rp17
s(S'_perf_Novelty'
p18
F0.8
F0.001
tp19
g3
(g7
S'F\x04H\xf0\xc2\xa5\xaa\xbf'
p20
tp21
Rp22
s(S'_perf_bHR_rnd'
p23
F0.8
F0.001
tp24
g3
(g7
S'\xb1-\xce\xf0\xb8 \xbd?'
p25
tp26
Rp27
s.