(dp0
(S'_perf_wHR'
p1
F0.8
I0
tp2
cnumpy.core.multiarray
scalar
p3
(cnumpy
dtype
p4
(S'f8'
p5
I0
I1
tp6
Rp7
(I3
S'<'
p8
NNNI-1
I-1
I0
tp9
bS'm\xca9\xaa\x08\x1c\xa0?'
p10
tp11
Rp12
s(S'_perf_bHR_rnd'
p13
F0.8
I0
tp14
g3
(g7
S'}\x026\x9b\xa2\xbf\xbc?'
p15
tp16
Rp17
s(S'_perf_Novelty'
p18
F0.8
I0
tp19
g3
(g7
S'z\xde2\xd8\xf0\xb4\xaa\xbf'
p20
tp21
Rp22
s(S'_perf_bHR_pop'
p23
F0.8
I0
tp24
g3
(g7
S'u\xba\xf8\x15eq\xb2?'
p25
tp26
Rp27
s.