(dp0
(S'_perf_bHR_pop'
p1
F0.1
I2
tp2
cnumpy.core.multiarray
scalar
p3
(cnumpy
dtype
p4
(S'f8'
p5
I0
I1
tp6
Rp7
(I3
S'<'
p8
NNNI-1
I-1
I0
tp9
bS'\x12 \xaa\x0f<\xc1\x86?'
p10
tp11
Rp12
s(S'_perf_wHR'
p13
F0.1
I2
tp14
g3
(g7
S'\xd4L\xc8/\xc1\xf9q?'
p15
tp16
Rp17
s(S'_perf_Novelty'
p18
F0.1
I2
tp19
g3
(g7
S'\xc5\xb7\xaa9\xa5&\xdc?'
p20
tp21
Rp22
s(S'_perf_bHR_rnd'
p23
F0.1
I2
tp24
g3
(g7
S'H\x93\xa8\xc3d\x86\x89?'
p25
tp26
Rp27
s.