(dp0
(S'_perf_wHR'
p1
F0.3
I2
tp2
cnumpy.core.multiarray
scalar
p3
(cnumpy
dtype
p4
(S'f8'
p5
I0
I1
tp6
Rp7
(I3
S'<'
p8
NNNI-1
I-1
I0
tp9
bS'\x07.p\x8a\xa1\xado?'
p10
tp11
Rp12
s(S'_perf_bHR_pop'
p13
F0.3
I2
tp14
g3
(g7
S'v\x86\x01u\xb0\x0f\x83?'
p15
tp16
Rp17
s(S'_perf_bHR_rnd'
p18
F0.3
I2
tp19
g3
(g7
S'\xadY\xa9i\xd0#\x88?'
p20
tp21
Rp22
s(S'_perf_Novelty'
p23
F0.3
I2
tp24
g3
(g7
S'4\xdaA\xab\xc2(\xdc?'
p25
tp26
Rp27
s.