(dp0
(S'_perf_wHR'
p1
F0.1
F0.001
tp2
cnumpy.core.multiarray
scalar
p3
(cnumpy
dtype
p4
(S'f8'
p5
I0
I1
tp6
Rp7
(I3
S'<'
p8
NNNI-1
I-1
I0
tp9
bS'Yr\xfa<~\x14\xa3?'
p10
tp11
Rp12
s(S'_perf_bHR_pop'
p13
F0.1
F0.001
tp14
g3
(g7
S'{\x02\x99\xe3>\x1c\xba?'
p15
tp16
Rp17
s(S'_perf_Novelty'
p18
F0.1
F0.001
tp19
g3
(g7
S'r\x90\xef\xe8 \xf3\xa5\xbf'
p20
tp21
Rp22
s(S'_perf_bHR_rnd'
p23
F0.1
F0.001
tp24
g3
(g7
S'\xda^\xcd\xd6n\xf4\xc0?'
p25
tp26
Rp27
s.