(dp0
(S'_perf_wHR'
p1
F0.5
F0.01
tp2
cnumpy.core.multiarray
scalar
p3
(cnumpy
dtype
p4
(S'f8'
p5
I0
I1
tp6
Rp7
(I3
S'<'
p8
NNNI-1
I-1
I0
tp9
bS'\x8e\x95\xb3\\\xb9<\xa2?'
p10
tp11
Rp12
s(S'_perf_bHR_pop'
p13
F0.5
F0.01
tp14
g3
(g7
S'\xacy\xce\x04\x8b&\xb7?'
p15
tp16
Rp17
s(S'_perf_bHR_rnd'
p18
F0.5
F0.01
tp19
g3
(g7
S'\xb3\x15(\xc67\xd9\xbf?'
p20
tp21
Rp22
s(S'_perf_Novelty'
p23
F0.5
F0.01
tp24
g3
(g7
S'e\xbeW\xb5\xf0\xda\xa6\xbf'
p25
tp26
Rp27
s.