(dp0
(S'_perf_wHR'
p1
F0.1
I0
tp2
cnumpy.core.multiarray
scalar
p3
(cnumpy
dtype
p4
(S'f8'
p5
I0
I1
tp6
Rp7
(I3
S'<'
p8
NNNI-1
I-1
I0
tp9
bS'UU8\xf8\x14\x02\xa3?'
p10
tp11
Rp12
s(S'_perf_bHR_rnd'
p13
F0.1
I0
tp14
g3
(g7
S't>\x9b\x16\x9e\xab\xc0?'
p15
tp16
Rp17
s(S'_perf_Novelty'
p18
F0.1
I0
tp19
g3
(g7
S'\\g\x1ak\x17$\xa6\xbf'
p20
tp21
Rp22
s(S'_perf_bHR_pop'
p23
F0.1
I0
tp24
g3
(g7
S'H\xeb\xd2\x93"\x1a\xba?'
p25
tp26
Rp27
s.