(dp0
(S'_perf_Novelty'
p1
F0.8
F0.1
tp2
cnumpy.core.multiarray
scalar
p3
(cnumpy
dtype
p4
(S'f8'
p5
I0
I1
tp6
Rp7
(I3
S'<'
p8
NNNI-1
I-1
I0
tp9
bS'v\xd0\xbc\xb0\xbe\xbc\xd4?'
p10
tp11
Rp12
s(S'_perf_bHR_rnd'
p13
F0.8
F0.1
tp14
g3
(g7
S'y.\x11\x14\xba\xc2\xa7?'
p15
tp16
Rp17
s(S'_perf_bHR_pop'
p18
F0.8
F0.1
tp19
g3
(g7
S'I+\xba\x81\xfb\xc2\xaa?'
p20
tp21
Rp22
s(S'_perf_wHR'
p23
F0.8
F0.1
tp24
g3
(g7
S'\xd4\x90z6\xf6\xdc\x86?'
p25
tp26
Rp27
s.