(dp0
(S'_perf_bHR_pop'
p1
F0.1
I1
tp2
cnumpy.core.multiarray
scalar
p3
(cnumpy
dtype
p4
(S'f8'
p5
I0
I1
tp6
Rp7
(I3
S'<'
p8
NNNI-1
I-1
I0
tp9
bS'x\x86\x9e,\x14\xb3\x95?'
p10
tp11
Rp12
s(S'_perf_bHR_rnd'
p13
F0.1
I1
tp14
g3
(g7
S'y\x16\xce1\xd5\xd7\x97?'
p15
tp16
Rp17
s(S'_perf_Novelty'
p18
F0.1
I1
tp19
g3
(g7
S'C\x7fq\x1f\x82\xb8\xdb?'
p20
tp21
Rp22
s(S'_perf_wHR'
p23
F0.1
I1
tp24
g3
(g7
S'[\xafGU>0\x7f?'
p25
tp26
Rp27
s.