(dp0
(S'_perf_Novelty'
p1
F0.9
F0.01
tp2
cnumpy.core.multiarray
scalar
p3
(cnumpy
dtype
p4
(S'f8'
p5
I0
I1
tp6
Rp7
(I3
S'<'
p8
NNNI-1
I-1
I0
tp9
bS'\x87\x93P\xd5\x1c\x92\xaa\xbf'
p10
tp11
Rp12
s(S'_perf_bHR_rnd'
p13
F0.9
F0.01
tp14
g3
(g7
S'\x16\xc4H\xd2Z\xe8\xbb?'
p15
tp16
Rp17
s(S'_perf_bHR_pop'
p18
F0.9
F0.01
tp19
g3
(g7
S'\xa7=\x1e\x84\xd5\xc2\xb0?'
p20
tp21
Rp22
s(S'_perf_wHR'
p23
F0.9
F0.01
tp24
g3
(g7
S'\xd5\x11\xfe-\xb42\x9f?'
p25
tp26
Rp27
s.