(dp0
(S'_perf_bHR_rnd'
p1
F0.3
F0.01
tp2
cnumpy.core.multiarray
scalar
p3
(cnumpy
dtype
p4
(S'f8'
p5
I0
I1
tp6
Rp7
(I3
S'<'
p8
NNNI-1
I-1
I0
tp9
bS'AaD\x8e\xc8\xae\xc0?'
p10
tp11
Rp12
s(S'_perf_Novelty'
p13
F0.3
F0.01
tp14
g3
(g7
S'P\xb8\xb0>cL\xa5\xbf'
p15
tp16
Rp17
s(S'_perf_wHR'
p18
F0.3
F0.01
tp19
g3
(g7
S'"?\xa9\x12\xf7$\xa3?'
p20
tp21
Rp22
s(S'_perf_bHR_pop'
p23
F0.3
F0.01
tp24
g3
(g7
S'\xe1\xdck\x8f\xa4\x18\xb9?'
p25
tp26
Rp27
s.