(dp0
(S'_perf_bHR_pop'
p1
F0.9
I1
tp2
cnumpy.core.multiarray
scalar
p3
(cnumpy
dtype
p4
(S'f8'
p5
I0
I1
tp6
Rp7
(I3
S'<'
p8
NNNI-1
I-1
I0
tp9
bS'\xae\xd9wE\x82uy?'
p10
tp11
Rp12
s(S'_perf_bHR_rnd'
p13
F0.9
I1
tp14
g3
(g7
S'w\xa6\xc3\xc7\xce\xb5t?'
p15
tp16
Rp17
s(S'_perf_Novelty'
p18
F0.9
I1
tp19
g3
(g7
S'\xa6\x10\xa8\x82\xac\xdc\xdb?'
p20
tp21
Rp22
s(S'_perf_wHR'
p23
F0.9
I1
tp24
g3
(g7
S'c,\xca\x00\x94OV?'
p25
tp26
Rp27
s.