(dp0
(S'_perf_bHR_rnd'
p1
F0.3
F0.001
tp2
cnumpy.core.multiarray
scalar
p3
(cnumpy
dtype
p4
(S'f8'
p5
I0
I1
tp6
Rp7
(I3
S'<'
p8
NNNI-1
I-1
I0
tp9
bS's\xf0YI]G\xc0?'
p10
tp11
Rp12
s(S'_perf_bHR_pop'
p13
F0.3
F0.001
tp14
g3
(g7
S'z\xb2P\xccV\xa0\xb8?'
p15
tp16
Rp17
s(S'_perf_Novelty'
p18
F0.3
F0.001
tp19
g3
(g7
S'\xac\x14\xde\x1e\xae7\xa7\xbf'
p20
tp21
Rp22
s(S'_perf_wHR'
p23
F0.3
F0.001
tp24
g3
(g7
S'!\x7feP\xe1X\xa2?'
p25
tp26
Rp27
s.