(dp0
(S'_perf_Novelty'
p1
F0.9
F0.1
tp2
cnumpy.core.multiarray
scalar
p3
(cnumpy
dtype
p4
(S'f8'
p5
I0
I1
tp6
Rp7
(I3
S'<'
p8
NNNI-1
I-1
I0
tp9
bS'8 \x9el6\xf8\xd4?'
p10
tp11
Rp12
s(S'_perf_bHR_rnd'
p13
F0.9
F0.1
tp14
g3
(g7
S's\xb6\xea\x81\x16B\xa0?'
p15
tp16
Rp17
s(S'_perf_bHR_pop'
p18
F0.9
F0.1
tp19
g3
(g7
S'w\xd6I\x8c\x98\x8b\xa4?'
p20
tp21
Rp22
s(S'_perf_wHR'
p23
F0.9
F0.1
tp24
g3
(g7
S'=3\x8a\xe5\xa4\x04\x81?'
p25
tp26
Rp27
s.