(dp0
(S'_perf_bHR_rnd'
p1
F0.5
I2
tp2
cnumpy.core.multiarray
scalar
p3
(cnumpy
dtype
p4
(S'f8'
p5
I0
I1
tp6
Rp7
(I3
S'<'
p8
NNNI-1
I-1
I0
tp9
bS'\xa9\xf9bqu1\x83?'
p10
tp11
Rp12
s(S'_perf_Novelty'
p13
F0.5
I2
tp14
g3
(g7
S'\x1a\xb7\xc2\xfa\x98-\xdc?'
p15
tp16
Rp17
s(S'_perf_wHR'
p18
F0.5
I2
tp19
g3
(g7
S'\xad\xc6\x88\xcc\x07\xdbh?'
p20
tp21
Rp22
s(S'_perf_bHR_pop'
p23
F0.5
I2
tp24
g3
(g7
S'\x19\xc0t\xad\xd3\xff~?'
p25
tp26
Rp27
s.