(dp0
(S'_perf_bHR_pop'
p1
F0.1
S'cos'
p2
tp3
cnumpy.core.multiarray
scalar
p4
(cnumpy
dtype
p5
(S'f8'
p6
I0
I1
tp7
Rp8
(I3
S'<'
p9
NNNI-1
I-1
I0
tp10
bS'\xdd\xb5\x84|\xd0\xb3\xb9?'
p11
tp12
Rp13
s(S'_perf_wHR'
p14
F0.1
g2
tp15
g4
(g8
S'\xec\x08\x85\x06\xa8\xa2\xa6?'
p16
tp17
Rp18
s(S'_perf_Novelty'
p19
F0.1
g2
tp20
g4
(g8
S'\x9c#+Q\xc2\xfa\xb6\xbf'
p21
tp22
Rp23
s(S'_perf_bHR_rnd'
p24
F0.1
g2
tp25
g4
(g8
S'`\xe5\xd0"\xdb\xf9\xbe?'
p26
tp27
Rp28
s.