(dp0
(S'_perf_bHR_pop'
p1
F0.8
S'cos'
p2
tp3
cnumpy.core.multiarray
scalar
p4
(cnumpy
dtype
p5
(S'f8'
p6
I0
I1
tp7
Rp8
(I3
S'<'
p9
NNNI-1
I-1
I0
tp10
bS'u\xba\xf8\x15eq\xb2?'
p11
tp12
Rp13
s(S'_perf_wHR'
p14
F0.8
g2
tp15
g4
(g8
S'm\xca9\xaa\x08\x1c\xa0?'
p16
tp17
Rp18
s(S'_perf_Novelty'
p19
F0.8
g2
tp20
g4
(g8
S'z\xde2\xd8\xf0\xb4\xaa\xbf'
p21
tp22
Rp23
s(S'_perf_bHR_rnd'
p24
F0.8
g2
tp25
g4
(g8
S'\xe4x\x8b\xe1\x89\x84\xbc?'
p26
tp27
Rp28
s.