(dp0
(S'_perf_bHR_pop'
p1
F0.9
S'cos'
p2
tp3
cnumpy.core.multiarray
scalar
p4
(cnumpy
dtype
p5
(S'f8'
p6
I0
I1
tp7
Rp8
(I3
S'<'
p9
NNNI-1
I-1
I0
tp10
bS't>\x9b\x16\x9e\xab\xb0?'
p11
tp12
Rp13
s(S'_perf_wHR'
p14
F0.9
g2
tp15
g4
(g8
S'\x9d\x12\x00=\x03&\x9f?'
p16
tp17
Rp18
s(S'_perf_Novelty'
p19
F0.9
g2
tp20
g4
(g8
S'@#\xd6\xa2\xba\x0b\xab\xbf'
p21
tp22
Rp23
s(S'_perf_bHR_rnd'
p24
F0.9
g2
tp25
g4
(g8
S'\x17\xd8\x1a\xd8TG\xbc?'
p26
tp27
Rp28
s.