(dp0
(S'_perf_bHR_pop'
p1
F0.8
S'cos'
p2
tp3
cnumpy.core.multiarray
scalar
p4
(cnumpy
dtype
p5
(S'f8'
p6
I0
I1
tp7
Rp8
(I3
S'<'
p9
NNNI-1
I-1
I0
tp10
bS'\x87\xa7W\xca2\xc4\xb1?'
p11
tp12
Rp13
s(S'_perf_wHR'
p14
F0.8
g2
tp15
g4
(g8
S'\xddm\xc3\xdey\x1f\xa1?'
p16
tp17
Rp18
s(S'_perf_Novelty'
p19
F0.8
g2
tp20
g4
(g8
S'\xa2\xddH\xe2\xacP\xba\xbf'
p21
tp22
Rp23
s(S'_perf_bHR_rnd'
p24
F0.8
g2
tp25
g4
(g8
S'\xfa~j\xbct\x93\xb8?'
p26
tp27
Rp28
s.