(dp0
(S'_perf_bHR_rnd'
p1
F0.5
S'cos'
p2
tp3
cnumpy.core.multiarray
scalar
p4
(cnumpy
dtype
p5
(S'f8'
p6
I0
I1
tp7
Rp8
(I3
S'<'
p9
NNNI-1
I-1
I0
tp10
bS'\xda\xac\xfa\\m\xc5\xbe?'
p11
tp12
Rp13
s(S'_perf_Novelty'
p14
F0.5
g2
tp15
g4
(g8
S',EddP\x1c\xb9\xbf'
p16
tp17
Rp18
s(S'_perf_wHR'
p19
F0.5
g2
tp20
g4
(g8
S'\xb9\x01cf\x85\x80\xa3?'
p21
tp22
Rp23
s(S'_perf_bHR_pop'
p24
F0.5
g2
tp25
g4
(g8
S'\x99\xbb\x96\x90\x0fz\xb6?'
p26
tp27
Rp28
s.