(dp0
(S'_perf_bHR_pop'
p1
F0.1
S'cos'
p2
tp3
cnumpy.core.multiarray
scalar
p4
(cnumpy
dtype
p5
(S'f8'
p6
I0
I1
tp7
Rp8
(I3
S'<'
p9
NNNI-1
I-1
I0
tp10
bS'H\xeb\xd2\x93"\x1a\xba?'
p11
tp12
Rp13
s(S'_perf_wHR'
p14
F0.1
g2
tp15
g4
(g8
S'UU8\xf8\x14\x02\xa3?'
p16
tp17
Rp18
s(S'_perf_Novelty'
p19
F0.1
g2
tp20
g4
(g8
S'\\g\x1ak\x17$\xa6\xbf'
p21
tp22
Rp23
s(S'_perf_bHR_rnd'
p24
F0.1
g2
tp25
g4
(g8
S'\xa7\xd7\x99\xd4\xafs\xc0?'
p26
tp27
Rp28
s.