(dp0
(S'_perf_bHR_rnd'
p1
F0.3
F0.1
tp2
cnumpy.core.multiarray
scalar
p3
(cnumpy
dtype
p4
(S'f8'
p5
I0
I1
tp6
Rp7
(I3
S'<'
p8
NNNI-1
I-1
I0
tp9
bS'\x1bp\xc5\x1ap\xc5\xca?'
p10
tp11
Rp12
s(S'_perf_Novelty'
p13
F0.3
F0.1
tp14
g3
(g7
S'{$\xe6\x0c_\x94\xd0?'
p15
tp16
Rp17
s(S'_perf_wHR'
p18
F0.3
F0.1
tp19
g3
(g7
S'\x02\xf2\xdd\x87\xb5\x16\xb1?'
p20
tp21
Rp22
s(S'_perf_bHR_pop'
p23
F0.3
F0.1
tp24
g3
(g7
S't\x90W\xc9\xe5\xac\xce?'
p25
tp26
Rp27
s.