(dp0
(S'_perf_bHR_pop'
p1
F0.8
I10
tp2
cnumpy.core.multiarray
scalar
p3
(cnumpy
dtype
p4
(S'f8'
p5
I0
I1
tp6
Rp7
(I3
S'<'
p8
NNNI-1
I-1
I0
tp9
bS'\x00\x00\x00\x00\x00\x00\x00\x00'
p10
tp11
Rp12
s(S'_perf_wHR'
p13
F0.8
I10
tp14
g3
(g7
S'\\\xf1\x1d\xbb\xb0\xa8+?'
p15
tp16
Rp17
s(S'_perf_Novelty'
p18
F0.8
I10
tp19
g3
(g7
S'\xc7\x05\xadR,7\xee?'
p20
tp21
Rp22
s(S'_perf_bHR_rnd'
p23
F0.8
I10
tp24
g3
(g7
S'\x00\x00\x00\x00\x00\x00\x00\x00'
p25
tp26
Rp27
s.