(dp0
(S'_perf_bHR_pop'
p1
F0.5
F0.001
tp2
cnumpy.core.multiarray
scalar
p3
(cnumpy
dtype
p4
(S'f8'
p5
I0
I1
tp6
Rp7
(I3
S'<'
p8
NNNI-1
I-1
I0
tp9
bS'\x95?\xea\x94?\xea\xc4?'
p10
tp11
Rp12
s(S'_perf_Novelty'
p13
F0.5
F0.001
tp14
g3
(g7
S'r\x87,T~-a?'
p15
tp16
Rp17
s(S'_perf_wHR'
p18
F0.5
F0.001
tp19
g3
(g7
S'\xe2\x8e\xe5!p\x80\xa9?'
p20
tp21
Rp22
s(S'_perf_bHR_rnd'
p23
F0.5
F0.001
tp24
g3
(g7
S'\xc2O3l\xfa\xdd\xc6?'
p25
tp26
Rp27
s.