(dp0
(S'_perf_bHR_pop'
p1
F0.1
I1
tp2
cnumpy.core.multiarray
scalar
p3
(cnumpy
dtype
p4
(S'f8'
p5
I0
I1
tp6
Rp7
(I3
S'<'
p8
NNNI-1
I-1
I0
tp9
bS't\x90W\xc9\xe5\xac\xce?'
p10
tp11
Rp12
s(S'_perf_bHR_rnd'
p13
F0.1
I1
tp14
g3
(g7
S'\x17\xc2l\x17\xc2l\xa7?'
p15
tp16
Rp17
s(S'_perf_Novelty'
p18
F0.1
I1
tp19
g3
(g7
S'h\xed\x02\x9c\xf8\xd7\xeb?'
p20
tp21
Rp22
s(S'_perf_wHR'
p23
F0.1
I1
tp24
g3
(g7
S'\xb7\x0c\x9f!\xc8\x8e\x92?'
p25
tp26
Rp27
s.