(dp0
(S'_perf_wHR'
p1
F0.3
I0
tp2
cnumpy.core.multiarray
scalar
p3
(cnumpy
dtype
p4
(S'f8'
p5
I0
I1
tp6
Rp7
(I3
S'<'
p8
NNNI-1
I-1
I0
tp9
bS'\xb8\xc0?\xb6\xa0\xbf\xab?'
p10
tp11
Rp12
s(S'_perf_Novelty'
p13
F0.3
I0
tp14
g3
(g7
S'!y\xcd\xbb\x16\x81\x80?'
p15
tp16
Rp17
s(S'_perf_bHR_pop'
p18
F0.3
I0
tp19
g3
(g7
S'\xca\x02\x91t\xad;\xcf?'
p20
tp21
Rp22
s(S'_perf_bHR_rnd'
p23
F0.3
I0
tp24
g3
(g7
S'\xee_|C\xb5\xd1\xc8?'
p25
tp26
Rp27
s.