(dp0
(S'_perf_wHR'
p1
F0.3
I10
tp2
cnumpy.core.multiarray
scalar
p3
(cnumpy
dtype
p4
(S'f8'
p5
I0
I1
tp6
Rp7
(I3
S'<'
p8
NNNI-1
I-1
I0
tp9
bS'\xee\xbe\xce#\xe3\xacI?'
p10
tp11
Rp12
s(S'_perf_bHR_pop'
p13
F0.3
I10
tp14
g3
(g7
S'\xca\x02\x91t\xad;\x8f?'
p15
tp16
Rp17
s(S'_perf_bHR_rnd'
p18
F0.3
I10
tp19
g3
(g7
S'\x00\x00\x00\x00\x00\x00\x00\x00'
p20
tp21
Rp22
s(S'_perf_Novelty'
p23
F0.3
I10
tp24
g3
(g7
S'\x06\x13\xb1R\x8a9\xee?'
p25
tp26
Rp27
s.