(dp0
(S'_perf_wHR'
p1
F0.1
F0.001
tp2
cnumpy.core.multiarray
scalar
p3
(cnumpy
dtype
p4
(S'f8'
p5
I0
I1
tp6
Rp7
(I3
S'<'
p8
NNNI-1
I-1
I0
tp9
bS'\xe7\x82X\x8c\x94F\xac?'
p10
tp11
Rp12
s(S'_perf_bHR_pop'
p13
F0.1
F0.001
tp14
g3
(g7
S"}`\x99'\x0bD\xd2?"
p15
tp16
Rp17
s(S'_perf_Novelty'
p18
F0.1
F0.001
tp19
g3
(g7
S'\xff8\xc5\xf5\x01\x06\x8a?'
p20
tp21
Rp22
s(S'_perf_bHR_rnd'
p23
F0.1
F0.001
tp24
g3
(g7
S'\xee_|C\xb5\xd1\xc8?'
p25
tp26
Rp27
s.